; Function Attrs: nounwind uwtable
define void @Acec_ManPrintRanks(ptr noundef readonly captures(none) %0) local_unnamed_addr #3 {
Vec_IntStart.exit:
  %1 = tail call noalias dereferenceable_or_null(16) ptr @malloc(i64 noundef 16) #19
  %2 = getelementptr inbounds nuw i8, ptr %1, i64 4
  store i32 100, ptr %1, align 8, !tbaa !28
  %calloc = tail call dereferenceable_or_null(400) ptr @calloc(i64 1, i64 400)
  %3 = getelementptr inbounds nuw i8, ptr %1, i64 8
  store ptr %calloc, ptr %3, align 8, !tbaa !29
  store i32 100, ptr %2, align 4, !tbaa !30
  %4 = getelementptr i8, ptr %0, i64 4
  %.val32 = load i32, ptr %4, align 4, !tbaa !30
  %5 = icmp sgt i32 %.val32, 1
  br i1 %5, label %.lr.ph, label %.critedge2

.lr.ph:                                           ; preds = %Vec_IntStart.exit
  %6 = getelementptr i8, ptr %0, i64 8
  br label %8

.critedge.preheader:                              ; preds = %Vec_IntFillExtra.exit
  store i32 %39, ptr %2, align 4
  store ptr %storemerge37, ptr %3, align 8
  %.not39 = icmp slt i32 %44, 1
  br i1 %.not39, label %.critedge2.thread, label %.lr.ph41

.lr.ph41:                                         ; preds = %.critedge.preheader
  %7 = add nuw i32 %44, 1
  %wide.trip.count = zext i32 %7 to i64
  br label %.critedge

8:                                                ; preds = %.lr.ph, %Vec_IntFillExtra.exit
  %indvars.iv = phi i64 [ 0, %.lr.ph ], [ %indvars.iv.next, %Vec_IntFillExtra.exit ]
  %storemerge36 = phi ptr [ %calloc, %.lr.ph ], [ %storemerge37, %Vec_IntFillExtra.exit ]
  %9 = phi i32 [ 100, %.lr.ph ], [ %39, %Vec_IntFillExtra.exit ]
  %.02233 = phi i32 [ 0, %.lr.ph ], [ %44, %Vec_IntFillExtra.exit ]
  %10 = or disjoint i64 %indvars.iv, 1
  %.val27 = load ptr, ptr %6, align 8, !tbaa !29
  %11 = getelementptr inbounds nuw i32, ptr %.val27, i64 %10
  %12 = load i32, ptr %11, align 4, !tbaa !31
  %13 = add nsw i32 %12, 1
  %.not.i29.not = icmp slt i32 %12, %9
  br i1 %.not.i29.not, label %Vec_IntFillExtra.exit, label %14

14:                                               ; preds = %8
  %15 = load i32, ptr %1, align 8, !tbaa !28
  %16 = shl nsw i32 %15, 1
  %.not31 = icmp slt i32 %12, %16
  %.not.i.i.not = icmp sgt i32 %15, %12
  br i1 %.not31, label %25, label %17

17:                                               ; preds = %14
  br i1 %.not.i.i.not, label %._crit_edge.i, label %18

18:                                               ; preds = %17
  %.not9.i.i = icmp eq ptr %storemerge36, null
  %19 = sext i32 %13 to i64
  %20 = shl nsw i64 %19, 2
  br i1 %.not9.i.i, label %23, label %21

21:                                               ; preds = %18
  %22 = tail call ptr @realloc(ptr noundef nonnull %storemerge36, i64 noundef %20) #20
  br label %Vec_IntGrow.exit.sink.split.i

23:                                               ; preds = %18
  %24 = tail call noalias ptr @malloc(i64 noundef %20) #19
  br label %Vec_IntGrow.exit.sink.split.i

25:                                               ; preds = %14
  br i1 %.not.i.i.not, label %._crit_edge.i, label %26

26:                                               ; preds = %25
  %.not9.i21.i = icmp eq ptr %storemerge36, null
  %27 = sext i32 %16 to i64
  %28 = shl nsw i64 %27, 2
  br i1 %.not9.i21.i, label %31, label %29

29:                                               ; preds = %26
  %30 = tail call ptr @realloc(ptr noundef nonnull %storemerge36, i64 noundef %28) #20
  br label %Vec_IntGrow.exit.sink.split.i

31:                                               ; preds = %26
  %32 = tail call noalias ptr @malloc(i64 noundef %28) #19
  br label %Vec_IntGrow.exit.sink.split.i

Vec_IntGrow.exit.sink.split.i:                    ; preds = %29, %31, %21, %23
  %storemerge = phi ptr [ %22, %21 ], [ %24, %23 ], [ %30, %29 ], [ %32, %31 ]
  %.sink.i = phi i32 [ %13, %21 ], [ %13, %23 ], [ %16, %29 ], [ %16, %31 ]
  store i32 %.sink.i, ptr %1, align 8, !tbaa !28
  br label %._crit_edge.i

._crit_edge.i:                                    ; preds = %Vec_IntGrow.exit.sink.split.i, %25, %17
  %storemerge38 = phi ptr [ %storemerge, %Vec_IntGrow.exit.sink.split.i ], [ %storemerge36, %25 ], [ %storemerge36, %17 ]
  %33 = sext i32 %9 to i64
  %34 = shl nsw i64 %33, 2
  %scevgep.i = getelementptr i8, ptr %storemerge38, i64 %34
  %35 = sub i32 %12, %9
  %36 = zext i32 %35 to i64
  %37 = shl nuw nsw i64 %36, 2
  %38 = add nuw nsw i64 %37, 4
  tail call void @llvm.memset.p0.i64(ptr noundef nonnull align 4 dereferenceable(1) %scevgep.i, i8 0, i64 %38, i1 false), !tbaa !31
  br label %Vec_IntFillExtra.exit

Vec_IntFillExtra.exit:                            ; preds = %8, %._crit_edge.i
  %storemerge37 = phi ptr [ %storemerge36, %8 ], [ %storemerge38, %._crit_edge.i ]
  %39 = phi i32 [ %9, %8 ], [ %13, %._crit_edge.i ]
  %40 = sext i32 %12 to i64
  %41 = getelementptr inbounds i32, ptr %storemerge37, i64 %40
  %42 = load i32, ptr %41, align 4, !tbaa !31
  %43 = add nsw i32 %42, 1
  store i32 %43, ptr %41, align 4, !tbaa !31
  %44 = tail call noundef i32 @llvm.smax.i32(i32 %.02233, i32 %12)
  %indvars.iv.next = add nuw nsw i64 %indvars.iv, 2
  %.val = load i32, ptr %4, align 4, !tbaa !30
  %45 = trunc i64 %indvars.iv.next to i32
  %46 = or disjoint i32 %45, 1
  %47 = icmp slt i32 %46, %.val
  br i1 %47, label %8, label %.critedge.preheader, !llvm.loop !68

.critedge:                                        ; preds = %.lr.ph41, %.critedge
  %indvars.iv44 = phi i64 [ 1, %.lr.ph41 ], [ %indvars.iv.next45, %.critedge ]
  %48 = getelementptr inbounds nuw i32, ptr %storemerge37, i64 %indvars.iv44
  %49 = load i32, ptr %48, align 4, !tbaa !31
  %50 = trunc nuw nsw i64 %indvars.iv44 to i32
  %51 = tail call i32 (ptr, ...) @printf(ptr noundef nonnull dereferenceable(1) @.str.2, i32 noundef %50, i32 noundef %49)
  %indvars.iv.next45 = add nuw nsw i64 %indvars.iv44, 1
  %exitcond.not = icmp eq i64 %indvars.iv.next45, %wide.trip.count
  br i1 %exitcond.not, label %.critedge2.thread, label %.critedge, !llvm.loop !69

.critedge2.thread:                                ; preds = %.critedge, %.critedge.preheader
  %putchar50 = tail call i32 @putchar(i32 10)
  br label %52

.critedge2:                                       ; preds = %Vec_IntStart.exit
  %putchar = tail call i32 @putchar(i32 10)
  %.not.i30 = icmp eq ptr %calloc, null
  br i1 %.not.i30, label %Vec_IntFree.exit, label %52

52:                                               ; preds = %.critedge2.thread, %.critedge2
  %53 = phi ptr [ %storemerge37, %.critedge2.thread ], [ %calloc, %.critedge2 ]
  tail call void @free(ptr noundef nonnull %53) #21
  br label %Vec_IntFree.exit

Vec_IntFree.exit:                                 ; preds = %.critedge2, %52
  tail call void @free(ptr noundef nonnull %1) #21
  ret void
}